target datalayout = "e-m:e-p270:32:32-p271:32:32-p272:64:64-i64:64-i128:128-f80:128-n8:16:32:64-S128"
target triple = "x86_64-pc-linux-gnu"

; Function Attrs: inlinehint mustprogress nounwind uwtable
define linkonce_odr noundef nonnull align 4 dereferenceable(4) ptr @_ZSt3maxIiERKT_S2_S2_(ptr noundef nonnull align 4 dereferenceable(4) %0, ptr noundef nonnull align 4 dereferenceable(4) %1) #3 comdat {
  %3 = alloca ptr, align 8
  %4 = alloca ptr, align 8
  %5 = alloca ptr, align 8
  store ptr %0, ptr %4, align 8, !tbaa !11
  store ptr %1, ptr %5, align 8, !tbaa !11
  %6 = load ptr, ptr %4, align 8, !tbaa !11
  %7 = load i32, ptr %6, align 4, !tbaa !3
  %8 = load ptr, ptr %5, align 8, !tbaa !11
  %9 = load i32, ptr %8, align 4, !tbaa !3
  %10 = icmp slt i32 %7, %9
  br i1 %10, label %11, label %13

11:                                               ; preds = %2
  %12 = load ptr, ptr %5, align 8, !tbaa !11
  store ptr %12, ptr %3, align 8
  br label %15

13:                                               ; preds = %2
  %14 = load ptr, ptr %4, align 8, !tbaa !11
  store ptr %14, ptr %3, align 8
  br label %15

15:                                               ; preds = %13, %11
  %16 = load ptr, ptr %3, align 8
  ret ptr %16
}

; Function Attrs: inlinehint mustprogress nounwind uwtable
define internal noundef i32 @_ZN2cvL7normInfIsiEET0_PKT_S4_i(ptr noundef %0, ptr noundef %1, i32 noundef %2) #3 {
  %4 = alloca ptr, align 8
  %5 = alloca ptr, align 8
  %6 = alloca i32, align 4
  %7 = alloca i32, align 4
  %8 = alloca i32, align 4
  %9 = alloca i32, align 4
  %10 = alloca i32, align 4
  store ptr %0, ptr %4, align 8, !tbaa !13
  store ptr %1, ptr %5, align 8, !tbaa !13
  store i32 %2, ptr %6, align 4, !tbaa !3
  call void @llvm.lifetime.start.p0(i64 4, ptr %7) #15
  store i32 0, ptr %7, align 4, !tbaa !3
  call void @llvm.lifetime.start.p0(i64 4, ptr %8) #15
  store i32 0, ptr %8, align 4, !tbaa !3
  br label %11

11:                                               ; preds = %34, %3
  %12 = load i32, ptr %8, align 4, !tbaa !3
  %13 = load i32, ptr %6, align 4, !tbaa !3
  %14 = icmp slt i32 %12, %13
  br i1 %14, label %16, label %15

15:                                               ; preds = %11
  call void @llvm.lifetime.end.p0(i64 4, ptr %8) #15
  br label %37

16:                                               ; preds = %11
  call void @llvm.lifetime.start.p0(i64 4, ptr %9) #15
  %17 = load ptr, ptr %4, align 8, !tbaa !13
  %18 = load i32, ptr %8, align 4, !tbaa !3
  %19 = sext i32 %18 to i64
  %20 = getelementptr inbounds i16, ptr %17, i64 %19
  %21 = load i16, ptr %20, align 2, !tbaa !101
  %22 = sext i16 %21 to i32
  %23 = load ptr, ptr %5, align 8, !tbaa !13
  %24 = load i32, ptr %8, align 4, !tbaa !3
  %25 = sext i32 %24 to i64
  %26 = getelementptr inbounds i16, ptr %23, i64 %25
  %27 = load i16, ptr %26, align 2, !tbaa !101
  %28 = sext i16 %27 to i32
  %29 = sub nsw i32 %22, %28
  store i32 %29, ptr %9, align 4, !tbaa !3
  call void @llvm.lifetime.start.p0(i64 4, ptr %10) #15
  %30 = load i32, ptr %9, align 4, !tbaa !3
  %31 = call i32 @llvm.abs.i32(i32 %30, i1 true)
  store i32 %31, ptr %10, align 4, !tbaa !3
  %32 = call noundef nonnull align 4 dereferenceable(4) ptr @_ZSt3maxIiERKT_S2_S2_(ptr noundef nonnull align 4 dereferenceable(4) %7, ptr noundef nonnull align 4 dereferenceable(4) %10)
  %33 = load i32, ptr %32, align 4, !tbaa !3
  store i32 %33, ptr %7, align 4, !tbaa !3
  call void @llvm.lifetime.end.p0(i64 4, ptr %10) #15
  call void @llvm.lifetime.end.p0(i64 4, ptr %9) #15
  br label %34

34:                                               ; preds = %16
  %35 = load i32, ptr %8, align 4, !tbaa !3
  %36 = add nsw i32 %35, 1
  store i32 %36, ptr %8, align 4, !tbaa !3
  br label %11, !llvm.loop !223

37:                                               ; preds = %15
  %38 = load i32, ptr %7, align 4, !tbaa !3
  call void @llvm.lifetime.end.p0(i64 4, ptr %7) #15
  ret i32 %38
}

; Function Attrs: mustprogress uwtable
define linkonce_odr hidden noundef i32 @_ZN2cv12normDiffInf_IsiEEiPKT_S3_PKhPT0_ii(ptr noundef %0, ptr noundef %1, ptr noundef %2, ptr noundef %3, i32 noundef %4, i32 noundef %5) #0 comdat {
  %7 = alloca ptr, align 8
  %8 = alloca ptr, align 8
  %9 = alloca ptr, align 8
  %10 = alloca ptr, align 8
  %11 = alloca i32, align 4
  %12 = alloca i32, align 4
  %13 = alloca i32, align 4
  %14 = alloca i32, align 4
  %15 = alloca i32, align 4
  %16 = alloca i32, align 4
  %17 = alloca i32, align 4
  %18 = alloca i32, align 4
  store ptr %0, ptr %7, align 8, !tbaa !13
  store ptr %1, ptr %8, align 8, !tbaa !13
  store ptr %2, ptr %9, align 8, !tbaa !9
  store ptr %3, ptr %10, align 8, !tbaa !11
  store i32 %4, ptr %11, align 4, !tbaa !3
  store i32 %5, ptr %12, align 4, !tbaa !3
  call void @llvm.lifetime.start.p0(i64 4, ptr %13) #15
  %19 = load ptr, ptr %10, align 8, !tbaa !11
  %20 = load i32, ptr %19, align 4, !tbaa !3
  store i32 %20, ptr %13, align 4, !tbaa !3
  %21 = load ptr, ptr %9, align 8, !tbaa !9
  %22 = icmp ne ptr %21, null
  br i1 %22, label %32, label %23

23:                                               ; preds = %6
  call void @llvm.lifetime.start.p0(i64 4, ptr %14) #15
  %24 = load ptr, ptr %7, align 8, !tbaa !13
  %25 = load ptr, ptr %8, align 8, !tbaa !13
  %26 = load i32, ptr %11, align 4, !tbaa !3
  %27 = load i32, ptr %12, align 4, !tbaa !3
  %28 = mul nsw i32 %26, %27
  %29 = call noundef i32 @_ZN2cvL7normInfIsiEET0_PKT_S4_i(ptr noundef %24, ptr noundef %25, i32 noundef %28)
  store i32 %29, ptr %14, align 4, !tbaa !3
  %30 = call noundef nonnull align 4 dereferenceable(4) ptr @_ZSt3maxIiERKT_S2_S2_(ptr noundef nonnull align 4 dereferenceable(4) %13, ptr noundef nonnull align 4 dereferenceable(4) %14)
  %31 = load i32, ptr %30, align 4, !tbaa !3
  store i32 %31, ptr %13, align 4, !tbaa !3
  call void @llvm.lifetime.end.p0(i64 4, ptr %14) #15
  br label %85

32:                                               ; preds = %6
  call void @llvm.lifetime.start.p0(i64 4, ptr %15) #15
  store i32 0, ptr %15, align 4, !tbaa !3
  br label %33

33:                                               ; preds = %73, %32
  %34 = load i32, ptr %15, align 4, !tbaa !3
  %35 = load i32, ptr %11, align 4, !tbaa !3
  %36 = icmp slt i32 %34, %35
  br i1 %36, label %38, label %37

37:                                               ; preds = %33
  store i32 2, ptr %16, align 4
  call void @llvm.lifetime.end.p0(i64 4, ptr %15) #15
  br label %84

38:                                               ; preds = %33
  %39 = load ptr, ptr %9, align 8, !tbaa !9
  %40 = load i32, ptr %15, align 4, !tbaa !3
  %41 = sext i32 %40 to i64
  %42 = getelementptr inbounds i8, ptr %39, i64 %41
  %43 = load i8, ptr %42, align 1, !tbaa !24
  %44 = icmp ne i8 %43, 0
  br i1 %44, label %45, label %72

45:                                               ; preds = %38
  call void @llvm.lifetime.start.p0(i64 4, ptr %17) #15
  store i32 0, ptr %17, align 4, !tbaa !3
  br label %46

46:                                               ; preds = %68, %45
  %47 = load i32, ptr %17, align 4, !tbaa !3
  %48 = load i32, ptr %12, align 4, !tbaa !3
  %49 = icmp slt i32 %47, %48
  br i1 %49, label %51, label %50

50:                                               ; preds = %46
  store i32 5, ptr %16, align 4
  call void @llvm.lifetime.end.p0(i64 4, ptr %17) #15
  br label %71

51:                                               ; preds = %46
  call void @llvm.lifetime.start.p0(i64 4, ptr %18) #15
  %52 = load ptr, ptr %7, align 8, !tbaa !13
  %53 = load i32, ptr %17, align 4, !tbaa !3
  %54 = sext i32 %53 to i64
  %55 = getelementptr inbounds i16, ptr %52, i64 %54
  %56 = load i16, ptr %55, align 2, !tbaa !101
  %57 = sext i16 %56 to i32
  %58 = load ptr, ptr %8, align 8, !tbaa !13
  %59 = load i32, ptr %17, align 4, !tbaa !3
  %60 = sext i32 %59 to i64
  %61 = getelementptr inbounds i16, ptr %58, i64 %60
  %62 = load i16, ptr %61, align 2, !tbaa !101
  %63 = sext i16 %62 to i32
  %64 = sub nsw i32 %57, %63
  %65 = call i32 @llvm.abs.i32(i32 %64, i1 true)
  store i32 %65, ptr %18, align 4, !tbaa !3
  %66 = call noundef nonnull align 4 dereferenceable(4) ptr @_ZSt3maxIiERKT_S2_S2_(ptr noundef nonnull align 4 dereferenceable(4) %13, ptr noundef nonnull align 4 dereferenceable(4) %18)
  %67 = load i32, ptr %66, align 4, !tbaa !3
  store i32 %67, ptr %13, align 4, !tbaa !3
  call void @llvm.lifetime.end.p0(i64 4, ptr %18) #15
  br label %68

68:                                               ; preds = %51
  %69 = load i32, ptr %17, align 4, !tbaa !3
  %70 = add nsw i32 %69, 1
  store i32 %70, ptr %17, align 4, !tbaa !3
  br label %46, !llvm.loop !221

71:                                               ; preds = %50
  br label %72

72:                                               ; preds = %71, %38
  br label %73

73:                                               ; preds = %72
  %74 = load i32, ptr %15, align 4, !tbaa !3
  %75 = add nsw i32 %74, 1
  store i32 %75, ptr %15, align 4, !tbaa !3
  %76 = load i32, ptr %12, align 4, !tbaa !3
  %77 = load ptr, ptr %7, align 8, !tbaa !13
  %78 = sext i32 %76 to i64
  %79 = getelementptr inbounds i16, ptr %77, i64 %78
  store ptr %79, ptr %7, align 8, !tbaa !13
  %80 = load i32, ptr %12, align 4, !tbaa !3
  %81 = load ptr, ptr %8, align 8, !tbaa !13
  %82 = sext i32 %80 to i64
  %83 = getelementptr inbounds i16, ptr %81, i64 %82
  store ptr %83, ptr %8, align 8, !tbaa !13
  br label %33, !llvm.loop !222

84:                                               ; preds = %37
  br label %85

85:                                               ; preds = %84, %23
  %86 = load i32, ptr %13, align 4, !tbaa !3
  %87 = load ptr, ptr %10, align 8, !tbaa !11
  store i32 %86, ptr %87, align 4, !tbaa !3
  store i32 1, ptr %16, align 4
  call void @llvm.lifetime.end.p0(i64 4, ptr %13) #15
  ret i32 0
}

; Function Attrs: mustprogress uwtable
define internal noundef i32 @_ZN2cvL15normDiffInf_16sEPKsS1_PKhPiii(ptr noundef %0, ptr noundef %1, ptr noundef %2, ptr noundef %3, i32 noundef %4, i32 noundef %5) #0 {
  %7 = alloca ptr, align 8
  %8 = alloca ptr, align 8
  %9 = alloca ptr, align 8
  %10 = alloca ptr, align 8
  %11 = alloca i32, align 4
  %12 = alloca i32, align 4
  store ptr %0, ptr %7, align 8, !tbaa !13
  store ptr %1, ptr %8, align 8, !tbaa !13
  store ptr %2, ptr %9, align 8, !tbaa !9
  store ptr %3, ptr %10, align 8, !tbaa !11
  store i32 %4, ptr %11, align 4, !tbaa !3
  store i32 %5, ptr %12, align 4, !tbaa !3
  %13 = load ptr, ptr %7, align 8, !tbaa !13
  %14 = load ptr, ptr %8, align 8, !tbaa !13
  %15 = load ptr, ptr %9, align 8, !tbaa !9
  %16 = load ptr, ptr %10, align 8, !tbaa !11
  %17 = load i32, ptr %11, align 4, !tbaa !3
  %18 = load i32, ptr %12, align 4, !tbaa !3
  %19 = call noundef i32 @_ZN2cv12normDiffInf_IsiEEiPKT_S3_PKhPT0_ii(ptr noundef %13, ptr noundef %14, ptr noundef %15, ptr noundef %16, i32 noundef %17, i32 noundef %18)
  ret i32 %19
}